; Function Attrs: mustprogress uwtable
define hidden void @_ZN13tactic_reportC2EPKcRK4goal(ptr nocapture noundef nonnull writeonly align 8 dereferenceable(8) %this, ptr noundef %id, ptr noundef nonnull align 8 dereferenceable(124) %g) unnamed_addr #3 align 2 personality ptr @__gxx_personality_v0 {
entry:
  %call = tail call noundef i32 @_Z19get_verbosity_levelv()
  %cmp = icmp ugt i32 %call, 9
  br i1 %cmp, label %if.then.i.i, label %if.end

if.then.i.i:                                      ; preds = %entry
  %call2 = tail call noalias noundef ptr @_ZN6memory8allocateEm(i64 noundef 48)
  store ptr %id, ptr %call2, align 8
  %m_goal.i = getelementptr inbounds i8, ptr %call2, i64 8
  store ptr %g, ptr %m_goal.i, align 8
  %m_watch.i = getelementptr inbounds i8, ptr %call2, i64 16
  tail call void @llvm.memset.p0.i64(ptr noundef nonnull align 8 dereferenceable(17) %m_watch.i, i8 0, i64 17, i1 false)
  %m_start_memory.i = getelementptr inbounds i8, ptr %call2, i64 40
  %call.i = tail call noundef i64 @_ZN6memory19get_allocation_sizeEv()
  %conv.i = uitofp i64 %call.i to double
  %div.i = fmul double %conv.i, 0x3EB0000000000000
  store double %div.i, ptr %m_start_memory.i, align 8
  %m_running.i.i = getelementptr inbounds i8, ptr %call2, i64 32
  %call.i.i.i = tail call i64 @_ZNSt6chrono3_V212steady_clock3nowEv() #14
  store i64 %call.i.i.i, ptr %m_watch.i, align 8
  store i8 1, ptr %m_running.i.i, align 8
  br label %if.end

if.end:                                           ; preds = %if.then.i.i, %entry
  %storemerge = phi ptr [ null, %entry ], [ %call2, %if.then.i.i ]
  store ptr %storemerge, ptr %this, align 8
  ret void
}